; Function Attrs: nounwind uwtable
define dso_local range(i32 -1, 2) i32 @PyWeakref_IsDead(ptr noundef %0) local_unnamed_addr #0 {
  %2 = icmp eq ptr %0, null
  br i1 %2, label %3, label %4

3:                                                ; preds = %1
  tail call void @_PyErr_BadInternalCall(ptr noundef nonnull @.str.3, i32 noundef 939) #6
  br label %_PyWeakref_IS_DEAD.exit

4:                                                ; preds = %1
  %5 = getelementptr i8, ptr %0, i64 8
  %.val10 = load ptr, ptr %5, align 8, !tbaa !4
  %.not.i = icmp eq ptr %.val10, @_PyWeakref_RefType
  br i1 %.not.i, label %PyObject_TypeCheck.exit.thread, label %PyObject_TypeCheck.exit

PyObject_TypeCheck.exit:                          ; preds = %4
  %6 = tail call i32 @PyType_IsSubtype(ptr noundef %.val10, ptr noundef nonnull @_PyWeakref_RefType) #6
  %.not13 = icmp eq i32 %6, 0
  br i1 %.not13, label %7, label %PyObject_TypeCheck.exit.thread

7:                                                ; preds = %PyObject_TypeCheck.exit
  %.val = load ptr, ptr %5, align 8, !tbaa !4
  %.not = icmp eq ptr %.val, @_PyWeakref_ProxyType
  %.not14 = icmp eq ptr %.val, @_PyWeakref_CallableProxyType
  %or.cond = or i1 %.not, %.not14
  br i1 %or.cond, label %PyObject_TypeCheck.exit.thread, label %8

8:                                                ; preds = %7
  %9 = load ptr, ptr @PyExc_TypeError, align 8, !tbaa !45
  %10 = tail call ptr (ptr, ptr, ...) @PyErr_Format(ptr noundef %9, ptr noundef nonnull @.str.4, ptr noundef nonnull %0) #6
  br label %_PyWeakref_IS_DEAD.exit

PyObject_TypeCheck.exit.thread:                   ; preds = %4, %7, %PyObject_TypeCheck.exit
  %11 = getelementptr i8, ptr %0, i64 16
  %.val11 = load ptr, ptr %11, align 8, !tbaa !37
  %12 = icmp eq ptr %.val11, @_Py_NoneStruct
  br i1 %12, label %_PyWeakref_IS_DEAD.exit, label %13

13:                                               ; preds = %PyObject_TypeCheck.exit.thread
  %.val.i = load i32, ptr %.val11, align 8, !tbaa !42
  %14 = icmp eq i32 %.val.i, 0
  %15 = zext i1 %14 to i32
  br label %_PyWeakref_IS_DEAD.exit

_PyWeakref_IS_DEAD.exit:                          ; preds = %13, %PyObject_TypeCheck.exit.thread, %8, %3
  %.0 = phi i32 [ -1, %3 ], [ -1, %8 ], [ %15, %13 ], [ 1, %PyObject_TypeCheck.exit.thread ]
  ret i32 %.0
}